; Function Attrs: mustprogress uwtable
define hidden noundef zeroext i1 @_ZNK13proof_checker16match_quantifierEPK4exprRbR10ref_vectorI4sort11ast_managerERPS0_(ptr nocapture nonnull readnone align 8 %this, ptr nocapture noundef readonly %e, ptr nocapture noundef nonnull writeonly align 1 dereferenceable(1) %is_univ, ptr noundef nonnull align 8 dereferenceable(16) %sorts, ptr nocapture noundef nonnull writeonly align 8 dereferenceable(8) %body) local_unnamed_addr #4 align 2 {
entry:
  %m_kind.i.i = getelementptr inbounds i8, ptr %e, i64 4
  %bf.load.i.i = load i32, ptr %m_kind.i.i, align 4
  %bf.clear.i.i = and i32 %bf.load.i.i, 65535
  %cmp.i = icmp eq i32 %bf.clear.i.i, 2
  br i1 %cmp.i, label %_Z9is_forallPK3ast.exit, label %return

_Z9is_forallPK3ast.exit:                          ; preds = %entry
  %m_kind.i.i7 = getelementptr inbounds i8, ptr %e, i64 16
  %0 = load i32, ptr %m_kind.i.i7, align 8
  %cmp.i8 = icmp eq i32 %0, 0
  %frombool = zext i1 %cmp.i8 to i8
  store i8 %frombool, ptr %is_univ, align 1
  %m_expr.i = getelementptr inbounds i8, ptr %e, i64 24
  %1 = load ptr, ptr %m_expr.i, align 8
  store ptr %1, ptr %body, align 8
  %m_num_decls.i = getelementptr inbounds i8, ptr %e, i64 20
  %2 = load i32, ptr %m_num_decls.i, align 4
  %cmp10.not = icmp eq i32 %2, 0
  br i1 %cmp10.not, label %return, label %for.body.lr.ph

for.body.lr.ph:                                   ; preds = %_Z9is_forallPK3ast.exit
  %m_patterns_decls.i.i = getelementptr inbounds i8, ptr %e, i64 80
  %m_nodes.i = getelementptr inbounds i8, ptr %sorts, i64 8
  br label %for.body

for.body:                                         ; preds = %for.body.lr.ph, %_ZN15ref_vector_coreI4sort19ref_manager_wrapperIS0_11ast_managerEE9push_backEPS0_.exit
  %indvars.iv = phi i64 [ 0, %for.body.lr.ph ], [ %indvars.iv.next, %_ZN15ref_vector_coreI4sort19ref_manager_wrapperIS0_11ast_managerEE9push_backEPS0_.exit ]
  %arrayidx.i = getelementptr inbounds ptr, ptr %m_patterns_decls.i.i, i64 %indvars.iv
  %3 = load ptr, ptr %arrayidx.i, align 8
  %tobool.not.i.i.i.i = icmp eq ptr %3, null
  br i1 %tobool.not.i.i.i.i, label %_ZN15ref_vector_coreI4sort19ref_manager_wrapperIS0_11ast_managerEE7inc_refEPS0_.exit.i, label %if.then.i.i.i.i

if.then.i.i.i.i:                                  ; preds = %for.body
  %m_ref_count.i.i.i.i.i = getelementptr inbounds i8, ptr %3, i64 8
  %4 = load i32, ptr %m_ref_count.i.i.i.i.i, align 4
  %inc.i.i.i.i.i = add i32 %4, 1
  store i32 %inc.i.i.i.i.i, ptr %m_ref_count.i.i.i.i.i, align 4
  br label %_ZN15ref_vector_coreI4sort19ref_manager_wrapperIS0_11ast_managerEE7inc_refEPS0_.exit.i

_ZN15ref_vector_coreI4sort19ref_manager_wrapperIS0_11ast_managerEE7inc_refEPS0_.exit.i: ; preds = %if.then.i.i.i.i, %for.body
  %5 = load ptr, ptr %m_nodes.i, align 8
  %cmp.i.i9 = icmp eq ptr %5, null
  br i1 %cmp.i.i9, label %if.then.i.i, label %lor.lhs.false.i.i

lor.lhs.false.i.i:                                ; preds = %_ZN15ref_vector_coreI4sort19ref_manager_wrapperIS0_11ast_managerEE7inc_refEPS0_.exit.i
  %arrayidx.i.i = getelementptr inbounds i8, ptr %5, i64 -4
  %6 = load i32, ptr %arrayidx.i.i, align 4
  %arrayidx4.i.i = getelementptr inbounds i8, ptr %5, i64 -8
  %7 = load i32, ptr %arrayidx4.i.i, align 4
  %cmp5.i.i = icmp eq i32 %6, %7
  br i1 %cmp5.i.i, label %if.then.i.i, label %_ZN15ref_vector_coreI4sort19ref_manager_wrapperIS0_11ast_managerEE9push_backEPS0_.exit

if.then.i.i:                                      ; preds = %lor.lhs.false.i.i, %_ZN15ref_vector_coreI4sort19ref_manager_wrapperIS0_11ast_managerEE7inc_refEPS0_.exit.i
  tail call void @_ZN6vectorIP4sortLb0EjE13expand_vectorEv(ptr noundef nonnull align 8 dereferenceable(8) %m_nodes.i)
  %.pre.i.i = load ptr, ptr %m_nodes.i, align 8
  %arrayidx8.phi.trans.insert.i.i = getelementptr inbounds i8, ptr %.pre.i.i, i64 -4
  %.pre1.i.i = load i32, ptr %arrayidx8.phi.trans.insert.i.i, align 4
  br label %_ZN15ref_vector_coreI4sort19ref_manager_wrapperIS0_11ast_managerEE9push_backEPS0_.exit

_ZN15ref_vector_coreI4sort19ref_manager_wrapperIS0_11ast_managerEE9push_backEPS0_.exit: ; preds = %lor.lhs.false.i.i, %if.then.i.i
  %8 = phi i32 [ %.pre1.i.i, %if.then.i.i ], [ %6, %lor.lhs.false.i.i ]
  %9 = phi ptr [ %.pre.i.i, %if.then.i.i ], [ %5, %lor.lhs.false.i.i ]
  %idx.ext.i.i = zext i32 %8 to i64
  %add.ptr.i.i = getelementptr inbounds ptr, ptr %9, i64 %idx.ext.i.i
  store ptr %3, ptr %add.ptr.i.i, align 8
  %10 = load ptr, ptr %m_nodes.i, align 8
  %arrayidx10.i.i = getelementptr inbounds i8, ptr %10, i64 -4
  %11 = load i32, ptr %arrayidx10.i.i, align 4
  %inc.i.i = add i32 %11, 1
  store i32 %inc.i.i, ptr %arrayidx10.i.i, align 4
  %indvars.iv.next = add nuw nsw i64 %indvars.iv, 1
  %12 = load i32, ptr %m_num_decls.i, align 4
  %13 = zext i32 %12 to i64
  %cmp = icmp ult i64 %indvars.iv.next, %13
  br i1 %cmp, label %for.body, label %return, !llvm.loop !24

return:                                           ; preds = %_ZN15ref_vector_coreI4sort19ref_manager_wrapperIS0_11ast_managerEE9push_backEPS0_.exit, %_Z9is_forallPK3ast.exit, %entry
  ret i1 %cmp.i
}